target datalayout = "e-m:e-p270:32:32-p271:32:32-p272:64:64-i64:64-i128:128-f80:128-n8:16:32:64-S128"
target triple = "x86_64-pc-linux-gnu"

%struct.sha512_ctx = type { [16 x i64], i64, [8 x i64], i32 }

; Function Attrs: nounwind uwtable
define dso_local void @rhash_sha512_update(ptr noundef %0, ptr noundef %1, i64 noundef %2) #0 {
  %4 = alloca ptr, align 8
  %5 = alloca ptr, align 8
  %6 = alloca i64, align 8
  %7 = alloca i64, align 8
  %8 = alloca i64, align 8
  %9 = alloca i32, align 4
  %10 = alloca ptr, align 8
  store ptr %0, ptr %4, align 8, !tbaa !4
  store ptr %1, ptr %5, align 8, !tbaa !14
  store i64 %2, ptr %6, align 8, !tbaa !16
  call void @llvm.lifetime.start.p0(i64 8, ptr %7) #6
  %11 = load ptr, ptr %4, align 8, !tbaa !4
  %12 = getelementptr inbounds nuw %struct.sha512_ctx, ptr %11, i32 0, i32 1
  %13 = load i64, ptr %12, align 8, !tbaa !9
  %14 = and i64 %13, 127
  store i64 %14, ptr %7, align 8, !tbaa !16
  %15 = load i64, ptr %6, align 8, !tbaa !16
  %16 = load ptr, ptr %4, align 8, !tbaa !4
  %17 = getelementptr inbounds nuw %struct.sha512_ctx, ptr %16, i32 0, i32 1
  %18 = load i64, ptr %17, align 8, !tbaa !9
  %19 = add i64 %18, %15
  store i64 %19, ptr %17, align 8, !tbaa !9
  %20 = load i64, ptr %7, align 8, !tbaa !16
  %21 = icmp ne i64 %20, 0
  br i1 %21, label %22, label %60

22:                                               ; preds = %3
  call void @llvm.lifetime.start.p0(i64 8, ptr %8) #6
  %23 = load i64, ptr %7, align 8, !tbaa !16
  %24 = sub i64 128, %23
  store i64 %24, ptr %8, align 8, !tbaa !16
  %25 = load ptr, ptr %4, align 8, !tbaa !4
  %26 = getelementptr inbounds nuw %struct.sha512_ctx, ptr %25, i32 0, i32 0
  %27 = getelementptr inbounds [16 x i64], ptr %26, i64 0, i64 0
  %28 = load i64, ptr %7, align 8, !tbaa !16
  %29 = getelementptr inbounds nuw i8, ptr %27, i64 %28
  %30 = load ptr, ptr %5, align 8, !tbaa !14
  %31 = load i64, ptr %6, align 8, !tbaa !16
  %32 = load i64, ptr %8, align 8, !tbaa !16
  %33 = icmp ult i64 %31, %32
  br i1 %33, label %34, label %36

34:                                               ; preds = %22
  %35 = load i64, ptr %6, align 8, !tbaa !16
  br label %38

36:                                               ; preds = %22
  %37 = load i64, ptr %8, align 8, !tbaa !16
  br label %38

38:                                               ; preds = %36, %34
  %39 = phi i64 [ %35, %34 ], [ %37, %36 ]
  call void @llvm.memcpy.p0.p0.i64(ptr align 1 %29, ptr align 1 %30, i64 %39, i1 false)
  %40 = load i64, ptr %6, align 8, !tbaa !16
  %41 = load i64, ptr %8, align 8, !tbaa !16
  %42 = icmp ult i64 %40, %41
  br i1 %42, label %43, label %44

43:                                               ; preds = %38
  store i32 1, ptr %9, align 4
  br label %57

44:                                               ; preds = %38
  %45 = load ptr, ptr %4, align 8, !tbaa !4
  %46 = getelementptr inbounds nuw %struct.sha512_ctx, ptr %45, i32 0, i32 2
  %47 = getelementptr inbounds [8 x i64], ptr %46, i64 0, i64 0
  %48 = load ptr, ptr %4, align 8, !tbaa !4
  %49 = getelementptr inbounds nuw %struct.sha512_ctx, ptr %48, i32 0, i32 0
  %50 = getelementptr inbounds [16 x i64], ptr %49, i64 0, i64 0
  call void @rhash_sha512_process_block(ptr noundef %47, ptr noundef %50)
  %51 = load i64, ptr %8, align 8, !tbaa !16
  %52 = load ptr, ptr %5, align 8, !tbaa !14
  %53 = getelementptr inbounds nuw i8, ptr %52, i64 %51
  store ptr %53, ptr %5, align 8, !tbaa !14
  %54 = load i64, ptr %8, align 8, !tbaa !16
  %55 = load i64, ptr %6, align 8, !tbaa !16
  %56 = sub i64 %55, %54
  store i64 %56, ptr %6, align 8, !tbaa !16
  store i32 0, ptr %9, align 4
  br label %57

57:                                               ; preds = %44, %43
  call void @llvm.lifetime.end.p0(i64 8, ptr %8) #6
  %58 = load i32, ptr %9, align 4
  switch i32 %58, label %98 [
    i32 0, label %59
  ]

59:                                               ; preds = %57
  br label %60

60:                                               ; preds = %59, %3
  br label %61

61:                                               ; preds = %79, %60
  %62 = load i64, ptr %6, align 8, !tbaa !16
  %63 = icmp uge i64 %62, 128
  br i1 %63, label %64, label %88

64:                                               ; preds = %61
  call void @llvm.lifetime.start.p0(i64 8, ptr %10) #6
  %65 = load ptr, ptr %5, align 8, !tbaa !14
  %66 = ptrtoint ptr %65 to i64
  %67 = and i64 7, %66
  %68 = icmp eq i64 0, %67
  br i1 %68, label %69, label %71

69:                                               ; preds = %64
  %70 = load ptr, ptr %5, align 8, !tbaa !14
  store ptr %70, ptr %10, align 8, !tbaa !17
  br label %79

71:                                               ; preds = %64
  %72 = load ptr, ptr %4, align 8, !tbaa !4
  %73 = getelementptr inbounds nuw %struct.sha512_ctx, ptr %72, i32 0, i32 0
  %74 = getelementptr inbounds [16 x i64], ptr %73, i64 0, i64 0
  %75 = load ptr, ptr %5, align 8, !tbaa !14
  call void @llvm.memcpy.p0.p0.i64(ptr align 8 %74, ptr align 1 %75, i64 128, i1 false)
  %76 = load ptr, ptr %4, align 8, !tbaa !4
  %77 = getelementptr inbounds nuw %struct.sha512_ctx, ptr %76, i32 0, i32 0
  %78 = getelementptr inbounds [16 x i64], ptr %77, i64 0, i64 0
  store ptr %78, ptr %10, align 8, !tbaa !17
  br label %79

79:                                               ; preds = %71, %69
  %80 = load ptr, ptr %4, align 8, !tbaa !4
  %81 = getelementptr inbounds nuw %struct.sha512_ctx, ptr %80, i32 0, i32 2
  %82 = getelementptr inbounds [8 x i64], ptr %81, i64 0, i64 0
  %83 = load ptr, ptr %10, align 8, !tbaa !17
  call void @rhash_sha512_process_block(ptr noundef %82, ptr noundef %83)
  %84 = load ptr, ptr %5, align 8, !tbaa !14
  %85 = getelementptr inbounds i8, ptr %84, i64 128
  store ptr %85, ptr %5, align 8, !tbaa !14
  %86 = load i64, ptr %6, align 8, !tbaa !16
  %87 = sub i64 %86, 128
  store i64 %87, ptr %6, align 8, !tbaa !16
  call void @llvm.lifetime.end.p0(i64 8, ptr %10) #6
  br label %61, !llvm.loop !19

88:                                               ; preds = %61
  %89 = load i64, ptr %6, align 8, !tbaa !16
  %90 = icmp ne i64 %89, 0
  br i1 %90, label %91, label %97

91:                                               ; preds = %88
  %92 = load ptr, ptr %4, align 8, !tbaa !4
  %93 = getelementptr inbounds nuw %struct.sha512_ctx, ptr %92, i32 0, i32 0
  %94 = getelementptr inbounds [16 x i64], ptr %93, i64 0, i64 0
  %95 = load ptr, ptr %5, align 8, !tbaa !14
  %96 = load i64, ptr %6, align 8, !tbaa !16
  call void @llvm.memcpy.p0.p0.i64(ptr align 8 %94, ptr align 1 %95, i64 %96, i1 false)
  br label %97

97:                                               ; preds = %91, %88
  store i32 0, ptr %9, align 4
  br label %98

98:                                               ; preds = %97, %57
  call void @llvm.lifetime.end.p0(i64 8, ptr %7) #6
  %99 = load i32, ptr %9, align 4
  switch i32 %99, label %101 [
    i32 0, label %100
    i32 1, label %100
  ]

100:                                              ; preds = %98, %98
  ret void

101:                                              ; preds = %98
  unreachable
}